target datalayout = "e-m:e-p270:32:32-p271:32:32-p272:64:64-i64:64-i128:128-f80:128-n8:16:32:64-S128"
target triple = "x86_64-pc-linux-gnu"

%struct.Qureg = type { i32, i32, i32, i64, i64, i32, i32, %struct.ComplexArray, %struct.ComplexArray, %struct.ComplexArray, ptr, ptr, ptr, ptr, ptr, ptr }
%struct.ComplexArray = type { ptr, ptr }
%struct.ComplexMatrix4 = type { [4 x [4 x double]], [4 x [4 x double]] }

@__func__.twoQubitUnitary = private unnamed_addr constant [16 x i8] c"twoQubitUnitary\00", align 1
@.str.2 = private unnamed_addr constant [50 x i8] c"Here, an undisclosed 2-qubit unitary was applied.\00", align 1

; Function Attrs: nounwind uwtable
define void @twoQubitUnitary(ptr noundef byval(%struct.Qureg) align 8 %0, i32 noundef %1, i32 noundef %2, ptr noundef byval(%struct.ComplexMatrix4) align 8 %3) #0 {
  %5 = alloca i32, align 4
  %6 = alloca i32, align 4
  %7 = alloca [2 x i32], align 4
  %8 = alloca i32, align 4
  %9 = alloca %struct.ComplexMatrix4, align 8
  store i32 %1, ptr %5, align 4, !tbaa !4
  store i32 %2, ptr %6, align 4, !tbaa !4
  %10 = load i32, ptr %5, align 4, !tbaa !4
  store i32 %10, ptr %7, align 4, !tbaa !4
  %11 = getelementptr inbounds i32, ptr %7, i64 1
  %12 = load i32, ptr %6, align 4, !tbaa !4
  store i32 %12, ptr %11, align 4, !tbaa !4
  %13 = getelementptr inbounds [2 x i32], ptr %7, i64 0, i64 0
  call void @validateMultiTargets(ptr noundef byval(%struct.Qureg) align 8 %0, ptr noundef %13, i32 noundef 2, ptr noundef @__func__.twoQubitUnitary)
  call void @validateTwoQubitUnitaryMatrix(ptr noundef byval(%struct.Qureg) align 8 %0, ptr noundef byval(%struct.ComplexMatrix4) align 8 %3, ptr noundef @__func__.twoQubitUnitary)
  %14 = load i32, ptr %5, align 4, !tbaa !4
  %15 = load i32, ptr %6, align 4, !tbaa !4
  call void @statevec_twoQubitUnitary(ptr noundef byval(%struct.Qureg) align 8 %0, i32 noundef %14, i32 noundef %15, ptr noundef byval(%struct.ComplexMatrix4) align 8 %3)
  %16 = getelementptr inbounds nuw %struct.Qureg, ptr %0, i32 0, i32 0
  %17 = load i32, ptr %16, align 8, !tbaa !13
  %18 = icmp ne i32 %17, 0
  br i1 %18, label %19, label %28

19:                                               ; preds = %4
  call void @llvm.lifetime.start.p0(i64 4, ptr %8) #7
  %20 = getelementptr inbounds nuw %struct.Qureg, ptr %0, i32 0, i32 1
  %21 = load i32, ptr %20, align 4, !tbaa !18
  store i32 %21, ptr %8, align 4, !tbaa !4
  %22 = load i32, ptr %5, align 4, !tbaa !4
  %23 = load i32, ptr %8, align 4, !tbaa !4
  %24 = add nsw i32 %22, %23
  %25 = load i32, ptr %6, align 4, !tbaa !4
  %26 = load i32, ptr %8, align 4, !tbaa !4
  %27 = add nsw i32 %25, %26
  call void @getConjugateMatrix4(ptr dead_on_unwind writable sret(%struct.ComplexMatrix4) align 8 %9, ptr noundef byval(%struct.ComplexMatrix4) align 8 %3)
  call void @statevec_twoQubitUnitary(ptr noundef byval(%struct.Qureg) align 8 %0, i32 noundef %24, i32 noundef %27, ptr noundef byval(%struct.ComplexMatrix4) align 8 %9)
  call void @llvm.lifetime.end.p0(i64 4, ptr %8) #7
  br label %28

28:                                               ; preds = %19, %4
  call void (ptr, ptr, ...) @qasm_recordComment(ptr noundef byval(%struct.Qureg) align 8 %0, ptr noundef @.str.2)
  ret void
}