; Function Attrs: nounwind uwtable
define void @twoQubitUnitary(ptr noundef readonly byval(%struct.Qureg) align 8 captures(none) %0, i32 noundef %1, i32 noundef %2, ptr noundef readonly byval(%struct.ComplexMatrix4) align 8 captures(none) %3) local_unnamed_addr #0 {
  %5 = alloca [2 x i32], align 4
  %6 = alloca %struct.ComplexMatrix4, align 8
  store i32 %1, ptr %5, align 4, !tbaa !20
  %7 = getelementptr inbounds nuw i8, ptr %5, i64 4
  store i32 %2, ptr %7, align 4, !tbaa !20
  call void @validateMultiTargets(ptr noundef nonnull byval(%struct.Qureg) align 8 %0, ptr noundef nonnull %5, i32 noundef 2, ptr noundef nonnull @__func__.twoQubitUnitary) #17
  call void @validateTwoQubitUnitaryMatrix(ptr noundef nonnull byval(%struct.Qureg) align 8 %0, ptr noundef nonnull byval(%struct.ComplexMatrix4) align 8 %3, ptr noundef nonnull @__func__.twoQubitUnitary) #17
  call void @statevec_twoQubitUnitary(ptr noundef nonnull byval(%struct.Qureg) align 8 %0, i32 noundef %1, i32 noundef %2, ptr noundef nonnull byval(%struct.ComplexMatrix4) align 8 %3) #17
  %8 = load i32, ptr %0, align 8, !tbaa !12
  %.not = icmp eq i32 %8, 0
  br i1 %.not, label %14, label %9

9:                                                ; preds = %4
  %10 = getelementptr inbounds nuw i8, ptr %0, i64 4
  %11 = load i32, ptr %10, align 4, !tbaa !17
  %12 = add nsw i32 %11, %1
  %13 = add nsw i32 %11, %2
  call void @getConjugateMatrix4(ptr dead_on_unwind nonnull writable sret(%struct.ComplexMatrix4) align 8 %6, ptr noundef nonnull byval(%struct.ComplexMatrix4) align 8 %3) #17
  call void @statevec_twoQubitUnitary(ptr noundef nonnull byval(%struct.Qureg) align 8 %0, i32 noundef %12, i32 noundef %13, ptr noundef nonnull byval(%struct.ComplexMatrix4) align 8 %6) #17
  br label %14

14:                                               ; preds = %9, %4
  call void (ptr, ptr, ...) @qasm_recordComment(ptr noundef nonnull byval(%struct.Qureg) align 8 %0, ptr noundef nonnull @.str.2) #17
  ret void
}